target datalayout = "e-m:e-p270:32:32-p271:32:32-p272:64:64-i64:64-i128:128-f80:128-n8:16:32:64-S128"
target triple = "x86_64-pc-linux-gnu"

%struct.exr_attr_opaquedata_t = type { i32, i32, i32, [4 x i8], ptr, ptr, ptr, ptr, ptr }
%struct._priv_exr_context_t = type { i8, i8, i8, i8, i8, i8, i8, i8, %struct.exr_attr_string_t, %struct.exr_attr_string_t, ptr, ptr, ptr, ptr, ptr, ptr, ptr, ptr, i32, i32, i32, i32, i32, float, ptr, ptr, ptr, i64, ptr, ptr, i64, i32, i32, i32, i32, %struct._priv_exr_part_t, ptr, ptr, %struct.exr_attribute_list, %union.pthread_mutex_t, i8, i8, [2 x i8], i32 }
%struct.exr_attr_string_t = type { i32, i32, ptr }
%struct._priv_exr_part_t = type { i32, i32, %struct.exr_attribute_list, ptr, ptr, ptr, ptr, ptr, ptr, ptr, ptr, ptr, ptr, ptr, ptr, ptr, ptr, %struct.exr_attr_box2i_t, %struct.exr_attr_box2i_t, i32, i32, i32, float, i32, i32, ptr, ptr, ptr, ptr, i64, i16, i16, i32, i64, i64 }
%struct.exr_attr_box2i_t = type { %struct.exr_attr_v2i_t, %struct.exr_attr_v2i_t }
%struct.exr_attr_v2i_t = type { i32, i32 }
%struct.exr_attribute_list = type { i32, i32, ptr, ptr }
%union.pthread_mutex_t = type { %struct.__pthread_mutex_s }
%struct.__pthread_mutex_s = type { i32, i32, i32, i32, i32, i16, i16, %struct.__pthread_internal_list }
%struct.__pthread_internal_list = type { ptr, ptr }

@.str = private unnamed_addr constant [54 x i8] c"Invalid reference to opaque data object to initialize\00", align 1
@.str.3 = private unnamed_addr constant [43 x i8] c"No pack provider specified for opaque data\00", align 1
@.str.4 = private unnamed_addr constant [64 x i8] c"Pack function failed finding pack buffer size, unpacked size %d\00", align 1
@.str.5 = private unnamed_addr constant [75 x i8] c"Pack function failed to pack data, unpacked size %d, packed buffer size %d\00", align 1

; Function Attrs: nounwind uwtable
define hidden i32 @exr_attr_opaquedata_pack(ptr noundef %0, ptr noundef %1, ptr noundef %2, ptr noundef %3) #0 {
  %5 = alloca i32, align 4
  %6 = alloca ptr, align 8
  %7 = alloca ptr, align 8
  %8 = alloca ptr, align 8
  %9 = alloca ptr, align 8
  %10 = alloca i32, align 4
  %11 = alloca i32, align 4
  %12 = alloca ptr, align 8
  %13 = alloca i32, align 4
  store ptr %0, ptr %6, align 8, !tbaa !3
  store ptr %1, ptr %7, align 8, !tbaa !8
  store ptr %2, ptr %8, align 8, !tbaa !40
  store ptr %3, ptr %9, align 8, !tbaa !41
  call void @llvm.lifetime.start.p0(i64 4, ptr %10) #4
  call void @llvm.lifetime.start.p0(i64 4, ptr %11) #4
  store i32 0, ptr %11, align 4, !tbaa !28
  call void @llvm.lifetime.start.p0(i64 8, ptr %12) #4
  store ptr null, ptr %12, align 8, !tbaa !8
  %14 = load ptr, ptr %6, align 8, !tbaa !3
  %15 = icmp ne ptr %14, null
  br i1 %15, label %17, label %16

16:                                               ; preds = %4
  store i32 2, ptr %5, align 4
  store i32 1, ptr %13, align 4
  br label %190

17:                                               ; preds = %4
  %18 = load ptr, ptr %8, align 8, !tbaa !40
  %19 = icmp ne ptr %18, null
  br i1 %19, label %20, label %22

20:                                               ; preds = %17
  %21 = load ptr, ptr %8, align 8, !tbaa !40
  store i32 0, ptr %21, align 4, !tbaa !28
  br label %22

22:                                               ; preds = %20, %17
  %23 = load ptr, ptr %9, align 8, !tbaa !41
  %24 = icmp ne ptr %23, null
  br i1 %24, label %25, label %27

25:                                               ; preds = %22
  %26 = load ptr, ptr %9, align 8, !tbaa !41
  store ptr null, ptr %26, align 8, !tbaa !8
  br label %27

27:                                               ; preds = %25, %22
  %28 = load ptr, ptr %7, align 8, !tbaa !8
  %29 = icmp ne ptr %28, null
  br i1 %29, label %36, label %30

30:                                               ; preds = %27
  %31 = load ptr, ptr %6, align 8, !tbaa !3
  %32 = getelementptr inbounds nuw %struct._priv_exr_context_t, ptr %31, i32 0, i32 13
  %33 = load ptr, ptr %32, align 8, !tbaa !11
  %34 = load ptr, ptr %6, align 8, !tbaa !3
  %35 = call i32 %33(ptr noundef %34, i32 noundef 3, ptr noundef @.str)
  store i32 %35, ptr %5, align 4
  store i32 1, ptr %13, align 4
  br label %190

36:                                               ; preds = %27
  %37 = load ptr, ptr %7, align 8, !tbaa !8
  %38 = getelementptr inbounds nuw %struct.exr_attr_opaquedata_t, ptr %37, i32 0, i32 4
  %39 = load ptr, ptr %38, align 8, !tbaa !31
  %40 = icmp ne ptr %39, null
  br i1 %40, label %41, label %58

41:                                               ; preds = %36
  %42 = load ptr, ptr %8, align 8, !tbaa !40
  %43 = icmp ne ptr %42, null
  br i1 %43, label %44, label %49

44:                                               ; preds = %41
  %45 = load ptr, ptr %7, align 8, !tbaa !8
  %46 = getelementptr inbounds nuw %struct.exr_attr_opaquedata_t, ptr %45, i32 0, i32 0
  %47 = load i32, ptr %46, align 8, !tbaa !34
  %48 = load ptr, ptr %8, align 8, !tbaa !40
  store i32 %47, ptr %48, align 4, !tbaa !28
  br label %49

49:                                               ; preds = %44, %41
  %50 = load ptr, ptr %9, align 8, !tbaa !41
  %51 = icmp ne ptr %50, null
  br i1 %51, label %52, label %57

52:                                               ; preds = %49
  %53 = load ptr, ptr %7, align 8, !tbaa !8
  %54 = getelementptr inbounds nuw %struct.exr_attr_opaquedata_t, ptr %53, i32 0, i32 4
  %55 = load ptr, ptr %54, align 8, !tbaa !31
  %56 = load ptr, ptr %9, align 8, !tbaa !41
  store ptr %55, ptr %56, align 8, !tbaa !8
  br label %57

57:                                               ; preds = %52, %49
  store i32 0, ptr %5, align 4
  store i32 1, ptr %13, align 4
  br label %190

58:                                               ; preds = %36
  %59 = load ptr, ptr %7, align 8, !tbaa !8
  %60 = getelementptr inbounds nuw %struct.exr_attr_opaquedata_t, ptr %59, i32 0, i32 7
  %61 = load ptr, ptr %60, align 8, !tbaa !43
  %62 = icmp ne ptr %61, null
  br i1 %62, label %69, label %63

63:                                               ; preds = %58
  %64 = load ptr, ptr %6, align 8, !tbaa !3
  %65 = getelementptr inbounds nuw %struct._priv_exr_context_t, ptr %64, i32 0, i32 13
  %66 = load ptr, ptr %65, align 8, !tbaa !11
  %67 = load ptr, ptr %6, align 8, !tbaa !3
  %68 = call i32 %66(ptr noundef %67, i32 noundef 3, ptr noundef @.str.3)
  store i32 %68, ptr %5, align 4
  store i32 1, ptr %13, align 4
  br label %190

69:                                               ; preds = %58
  %70 = load ptr, ptr %7, align 8, !tbaa !8
  %71 = getelementptr inbounds nuw %struct.exr_attr_opaquedata_t, ptr %70, i32 0, i32 7
  %72 = load ptr, ptr %71, align 8, !tbaa !43
  %73 = load ptr, ptr %6, align 8, !tbaa !3
  %74 = load ptr, ptr %7, align 8, !tbaa !8
  %75 = getelementptr inbounds nuw %struct.exr_attr_opaquedata_t, ptr %74, i32 0, i32 5
  %76 = load ptr, ptr %75, align 8, !tbaa !37
  %77 = load ptr, ptr %7, align 8, !tbaa !8
  %78 = getelementptr inbounds nuw %struct.exr_attr_opaquedata_t, ptr %77, i32 0, i32 1
  %79 = load i32, ptr %78, align 4, !tbaa !39
  %80 = call i32 %72(ptr noundef %73, ptr noundef %76, i32 noundef %79, ptr noundef %11, ptr noundef null)
  store i32 %80, ptr %10, align 4, !tbaa !28
  %81 = load i32, ptr %10, align 4, !tbaa !28
  %82 = icmp ne i32 %81, 0
  br i1 %82, label %83, label %93

83:                                               ; preds = %69
  %84 = load ptr, ptr %6, align 8, !tbaa !3
  %85 = getelementptr inbounds nuw %struct._priv_exr_context_t, ptr %84, i32 0, i32 14
  %86 = load ptr, ptr %85, align 8, !tbaa !26
  %87 = load ptr, ptr %6, align 8, !tbaa !3
  %88 = load i32, ptr %10, align 4, !tbaa !28
  %89 = load ptr, ptr %7, align 8, !tbaa !8
  %90 = getelementptr inbounds nuw %struct.exr_attr_opaquedata_t, ptr %89, i32 0, i32 1
  %91 = load i32, ptr %90, align 4, !tbaa !39
  %92 = call i32 (ptr, i32, ptr, ...) %86(ptr noundef %87, i32 noundef %88, ptr noundef @.str.4, i32 noundef %91)
  store i32 %92, ptr %5, align 4
  store i32 1, ptr %13, align 4
  br label %190

93:                                               ; preds = %69
  %94 = load i32, ptr %11, align 4, !tbaa !28
  %95 = icmp sgt i32 %94, 0
  br i1 %95, label %96, label %188

96:                                               ; preds = %93
  %97 = load ptr, ptr %6, align 8, !tbaa !3
  %98 = getelementptr inbounds nuw %struct._priv_exr_context_t, ptr %97, i32 0, i32 16
  %99 = load ptr, ptr %98, align 8, !tbaa !30
  %100 = load i32, ptr %11, align 4, !tbaa !28
  %101 = sext i32 %100 to i64
  %102 = call ptr %99(i64 noundef %101)
  store ptr %102, ptr %12, align 8, !tbaa !8
  %103 = load ptr, ptr %12, align 8, !tbaa !8
  %104 = icmp eq ptr %103, null
  br i1 %104, label %105, label %111

105:                                              ; preds = %96
  %106 = load ptr, ptr %6, align 8, !tbaa !3
  %107 = getelementptr inbounds nuw %struct._priv_exr_context_t, ptr %106, i32 0, i32 12
  %108 = load ptr, ptr %107, align 8, !tbaa !33
  %109 = load ptr, ptr %6, align 8, !tbaa !3
  %110 = call i32 %108(ptr noundef %109, i32 noundef 1)
  store i32 %110, ptr %5, align 4
  store i32 1, ptr %13, align 4
  br label %190

111:                                              ; preds = %96
  %112 = load i32, ptr %11, align 4, !tbaa !28
  %113 = load ptr, ptr %7, align 8, !tbaa !8
  %114 = getelementptr inbounds nuw %struct.exr_attr_opaquedata_t, ptr %113, i32 0, i32 2
  store i32 %112, ptr %114, align 8, !tbaa !35
  %115 = load ptr, ptr %7, align 8, !tbaa !8
  %116 = getelementptr inbounds nuw %struct.exr_attr_opaquedata_t, ptr %115, i32 0, i32 7
  %117 = load ptr, ptr %116, align 8, !tbaa !43
  %118 = load ptr, ptr %6, align 8, !tbaa !3
  %119 = load ptr, ptr %7, align 8, !tbaa !8
  %120 = getelementptr inbounds nuw %struct.exr_attr_opaquedata_t, ptr %119, i32 0, i32 5
  %121 = load ptr, ptr %120, align 8, !tbaa !37
  %122 = load ptr, ptr %7, align 8, !tbaa !8
  %123 = getelementptr inbounds nuw %struct.exr_attr_opaquedata_t, ptr %122, i32 0, i32 1
  %124 = load i32, ptr %123, align 4, !tbaa !39
  %125 = load ptr, ptr %12, align 8, !tbaa !8
  %126 = call i32 %117(ptr noundef %118, ptr noundef %121, i32 noundef %124, ptr noundef %11, ptr noundef %125)
  store i32 %126, ptr %10, align 4, !tbaa !28
  %127 = load i32, ptr %10, align 4, !tbaa !28
  %128 = icmp ne i32 %127, 0
  br i1 %128, label %129, label %149

129:                                              ; preds = %111
  %130 = load ptr, ptr %6, align 8, !tbaa !3
  %131 = getelementptr inbounds nuw %struct._priv_exr_context_t, ptr %130, i32 0, i32 17
  %132 = load ptr, ptr %131, align 8, !tbaa !36
  %133 = load ptr, ptr %12, align 8, !tbaa !8
  call void %132(ptr noundef %133)
  %134 = load ptr, ptr %7, align 8, !tbaa !8
  %135 = getelementptr inbounds nuw %struct.exr_attr_opaquedata_t, ptr %134, i32 0, i32 2
  %136 = load i32, ptr %135, align 8, !tbaa !35
  store i32 %136, ptr %11, align 4, !tbaa !28
  %137 = load ptr, ptr %7, align 8, !tbaa !8
  %138 = getelementptr inbounds nuw %struct.exr_attr_opaquedata_t, ptr %137, i32 0, i32 2
  store i32 0, ptr %138, align 8, !tbaa !35
  %139 = load ptr, ptr %6, align 8, !tbaa !3
  %140 = getelementptr inbounds nuw %struct._priv_exr_context_t, ptr %139, i32 0, i32 14
  %141 = load ptr, ptr %140, align 8, !tbaa !26
  %142 = load ptr, ptr %6, align 8, !tbaa !3
  %143 = load i32, ptr %10, align 4, !tbaa !28
  %144 = load ptr, ptr %7, align 8, !tbaa !8
  %145 = getelementptr inbounds nuw %struct.exr_attr_opaquedata_t, ptr %144, i32 0, i32 1
  %146 = load i32, ptr %145, align 4, !tbaa !39
  %147 = load i32, ptr %11, align 4, !tbaa !28
  %148 = call i32 (ptr, i32, ptr, ...) %141(ptr noundef %142, i32 noundef %143, ptr noundef @.str.5, i32 noundef %146, i32 noundef %147)
  store i32 %148, ptr %5, align 4
  store i32 1, ptr %13, align 4
  br label %190

149:                                              ; preds = %111
  %150 = load i32, ptr %11, align 4, !tbaa !28
  %151 = load ptr, ptr %7, align 8, !tbaa !8
  %152 = getelementptr inbounds nuw %struct.exr_attr_opaquedata_t, ptr %151, i32 0, i32 0
  store i32 %150, ptr %152, align 8, !tbaa !34
  %153 = load ptr, ptr %12, align 8, !tbaa !8
  %154 = load ptr, ptr %7, align 8, !tbaa !8
  %155 = getelementptr inbounds nuw %struct.exr_attr_opaquedata_t, ptr %154, i32 0, i32 4
  store ptr %153, ptr %155, align 8, !tbaa !31
  %156 = load ptr, ptr %8, align 8, !tbaa !40
  %157 = icmp ne ptr %156, null
  br i1 %157, label %158, label %161

158:                                              ; preds = %149
  %159 = load i32, ptr %11, align 4, !tbaa !28
  %160 = load ptr, ptr %8, align 8, !tbaa !40
  store i32 %159, ptr %160, align 4, !tbaa !28
  br label %161

161:                                              ; preds = %158, %149
  %162 = load ptr, ptr %9, align 8, !tbaa !41
  %163 = icmp ne ptr %162, null
  br i1 %163, label %164, label %167

164:                                              ; preds = %161
  %165 = load ptr, ptr %12, align 8, !tbaa !8
  %166 = load ptr, ptr %9, align 8, !tbaa !41
  store ptr %165, ptr %166, align 8, !tbaa !8
  br label %167

167:                                              ; preds = %164, %161
  %168 = load ptr, ptr %7, align 8, !tbaa !8
  %169 = getelementptr inbounds nuw %struct.exr_attr_opaquedata_t, ptr %168, i32 0, i32 8
  %170 = load ptr, ptr %169, align 8, !tbaa !38
  %171 = icmp ne ptr %170, null
  br i1 %171, label %172, label %183

172:                                              ; preds = %167
  %173 = load ptr, ptr %7, align 8, !tbaa !8
  %174 = getelementptr inbounds nuw %struct.exr_attr_opaquedata_t, ptr %173, i32 0, i32 8
  %175 = load ptr, ptr %174, align 8, !tbaa !38
  %176 = load ptr, ptr %6, align 8, !tbaa !3
  %177 = load ptr, ptr %7, align 8, !tbaa !8
  %178 = getelementptr inbounds nuw %struct.exr_attr_opaquedata_t, ptr %177, i32 0, i32 5
  %179 = load ptr, ptr %178, align 8, !tbaa !37
  %180 = load ptr, ptr %7, align 8, !tbaa !8
  %181 = getelementptr inbounds nuw %struct.exr_attr_opaquedata_t, ptr %180, i32 0, i32 1
  %182 = load i32, ptr %181, align 4, !tbaa !39
  call void %175(ptr noundef %176, ptr noundef %179, i32 noundef %182)
  br label %183

183:                                              ; preds = %172, %167
  %184 = load ptr, ptr %7, align 8, !tbaa !8
  %185 = getelementptr inbounds nuw %struct.exr_attr_opaquedata_t, ptr %184, i32 0, i32 5
  store ptr null, ptr %185, align 8, !tbaa !37
  %186 = load ptr, ptr %7, align 8, !tbaa !8
  %187 = getelementptr inbounds nuw %struct.exr_attr_opaquedata_t, ptr %186, i32 0, i32 1
  store i32 0, ptr %187, align 4, !tbaa !39
  br label %188

188:                                              ; preds = %183, %93
  %189 = load i32, ptr %10, align 4, !tbaa !28
  store i32 %189, ptr %5, align 4
  store i32 1, ptr %13, align 4
  br label %190

190:                                              ; preds = %188, %129, %105, %83, %63, %57, %30, %16
  call void @llvm.lifetime.end.p0(i64 8, ptr %12) #4
  call void @llvm.lifetime.end.p0(i64 4, ptr %11) #4
  call void @llvm.lifetime.end.p0(i64 4, ptr %10) #4
  %191 = load i32, ptr %5, align 4
  ret i32 %191
}