; Function Attrs: nounwind uwtable
define hidden i32 @exr_attr_opaquedata_pack(ptr noundef %0, ptr noundef %1, ptr noundef writeonly %2, ptr noundef writeonly %3) local_unnamed_addr #0 {
  %5 = alloca i32, align 4
  call void @llvm.lifetime.start.p0(i64 4, ptr nonnull %5) #4
  store i32 0, ptr %5, align 4, !tbaa !33
  %.not = icmp eq ptr %0, null
  br i1 %.not, label %81, label %6

6:                                                ; preds = %4
  %.not77 = icmp eq ptr %2, null
  br i1 %.not77, label %8, label %7

7:                                                ; preds = %6
  store i32 0, ptr %2, align 4, !tbaa !33
  br label %8

8:                                                ; preds = %7, %6
  %.not78 = icmp eq ptr %3, null
  br i1 %.not78, label %10, label %9

9:                                                ; preds = %8
  store ptr null, ptr %3, align 8, !tbaa !34
  br label %10

10:                                               ; preds = %9, %8
  %.not79 = icmp eq ptr %1, null
  br i1 %.not79, label %11, label %15

11:                                               ; preds = %10
  %12 = getelementptr inbounds nuw i8, ptr %0, i64 64
  %13 = load ptr, ptr %12, align 8, !tbaa !3
  %14 = tail call i32 %13(ptr noundef nonnull %0, i32 noundef 3, ptr noundef nonnull @.str) #4
  br label %81

15:                                               ; preds = %10
  %16 = getelementptr inbounds nuw i8, ptr %1, i64 16
  %17 = load ptr, ptr %16, align 8, !tbaa !24
  %.not80 = icmp eq ptr %17, null
  br i1 %.not80, label %23, label %18

18:                                               ; preds = %15
  br i1 %.not77, label %21, label %19

19:                                               ; preds = %18
  %20 = load i32, ptr %1, align 8, !tbaa !27
  store i32 %20, ptr %2, align 4, !tbaa !33
  br label %21

21:                                               ; preds = %19, %18
  br i1 %.not78, label %81, label %22

22:                                               ; preds = %21
  store ptr %17, ptr %3, align 8, !tbaa !34
  br label %81

23:                                               ; preds = %15
  %24 = getelementptr inbounds nuw i8, ptr %1, i64 40
  %25 = load ptr, ptr %24, align 8, !tbaa !36
  %.not81 = icmp eq ptr %25, null
  br i1 %.not81, label %26, label %30

26:                                               ; preds = %23
  %27 = getelementptr inbounds nuw i8, ptr %0, i64 64
  %28 = load ptr, ptr %27, align 8, !tbaa !3
  %29 = tail call i32 %28(ptr noundef nonnull %0, i32 noundef 3, ptr noundef nonnull @.str.3) #4
  br label %81

30:                                               ; preds = %23
  %31 = getelementptr inbounds nuw i8, ptr %1, i64 24
  %32 = load ptr, ptr %31, align 8, !tbaa !30
  %33 = getelementptr inbounds nuw i8, ptr %1, i64 4
  %34 = load i32, ptr %33, align 4, !tbaa !32
  %35 = call i32 %25(ptr noundef nonnull %0, ptr noundef %32, i32 noundef %34, ptr noundef nonnull %5, ptr noundef null) #4
  %.not82 = icmp eq i32 %35, 0
  br i1 %.not82, label %41, label %36

36:                                               ; preds = %30
  %37 = getelementptr inbounds nuw i8, ptr %0, i64 72
  %38 = load ptr, ptr %37, align 8, !tbaa !22
  %39 = load i32, ptr %33, align 4, !tbaa !32
  %40 = call i32 (ptr, i32, ptr, ...) %38(ptr noundef nonnull %0, i32 noundef %35, ptr noundef nonnull @.str.4, i32 noundef %39) #4
  br label %81

41:                                               ; preds = %30
  %42 = load i32, ptr %5, align 4, !tbaa !33
  %43 = icmp sgt i32 %42, 0
  br i1 %43, label %44, label %81

44:                                               ; preds = %41
  %45 = getelementptr inbounds nuw i8, ptr %0, i64 88
  %46 = load ptr, ptr %45, align 8, !tbaa !23
  %47 = zext nneg i32 %42 to i64
  %48 = call ptr %46(i64 noundef %47) #4
  %49 = icmp eq ptr %48, null
  br i1 %49, label %50, label %54

50:                                               ; preds = %44
  %51 = getelementptr inbounds nuw i8, ptr %0, i64 56
  %52 = load ptr, ptr %51, align 8, !tbaa !26
  %53 = call i32 %52(ptr noundef nonnull %0, i32 noundef 1) #4
  br label %81

54:                                               ; preds = %44
  %55 = load i32, ptr %5, align 4, !tbaa !33
  %56 = getelementptr inbounds nuw i8, ptr %1, i64 8
  store i32 %55, ptr %56, align 8, !tbaa !28
  %57 = load ptr, ptr %24, align 8, !tbaa !36
  %58 = load ptr, ptr %31, align 8, !tbaa !30
  %59 = load i32, ptr %33, align 4, !tbaa !32
  %60 = call i32 %57(ptr noundef nonnull %0, ptr noundef %58, i32 noundef %59, ptr noundef nonnull %5, ptr noundef nonnull %48) #4
  %.not83 = icmp eq i32 %60, 0
  br i1 %.not83, label %69, label %61

61:                                               ; preds = %54
  %62 = getelementptr inbounds nuw i8, ptr %0, i64 96
  %63 = load ptr, ptr %62, align 8, !tbaa !29
  call void %63(ptr noundef nonnull %48) #4
  %64 = load i32, ptr %56, align 8, !tbaa !28
  store i32 %64, ptr %5, align 4, !tbaa !33
  store i32 0, ptr %56, align 8, !tbaa !28
  %65 = getelementptr inbounds nuw i8, ptr %0, i64 72
  %66 = load ptr, ptr %65, align 8, !tbaa !22
  %67 = load i32, ptr %33, align 4, !tbaa !32
  %68 = call i32 (ptr, i32, ptr, ...) %66(ptr noundef nonnull %0, i32 noundef %60, ptr noundef nonnull @.str.5, i32 noundef %67, i32 noundef %64) #4
  br label %81

69:                                               ; preds = %54
  %70 = load i32, ptr %5, align 4, !tbaa !33
  store i32 %70, ptr %1, align 8, !tbaa !27
  store ptr %48, ptr %16, align 8, !tbaa !24
  br i1 %.not77, label %72, label %71

71:                                               ; preds = %69
  store i32 %70, ptr %2, align 4, !tbaa !33
  br label %72

72:                                               ; preds = %71, %69
  br i1 %.not78, label %74, label %73

73:                                               ; preds = %72
  store ptr %48, ptr %3, align 8, !tbaa !34
  br label %74

74:                                               ; preds = %73, %72
  %75 = getelementptr inbounds nuw i8, ptr %1, i64 48
  %76 = load ptr, ptr %75, align 8, !tbaa !31
  %.not84 = icmp eq ptr %76, null
  br i1 %.not84, label %80, label %77

77:                                               ; preds = %74
  %78 = load ptr, ptr %31, align 8, !tbaa !30
  %79 = load i32, ptr %33, align 4, !tbaa !32
  call void %76(ptr noundef nonnull %0, ptr noundef %78, i32 noundef %79) #4
  br label %80

80:                                               ; preds = %77, %74
  store ptr null, ptr %31, align 8, !tbaa !30
  store i32 0, ptr %33, align 4, !tbaa !32
  br label %81

81:                                               ; preds = %41, %80, %21, %22, %4, %61, %50, %36, %26, %11
  %.062 = phi i32 [ %40, %36 ], [ %53, %50 ], [ %68, %61 ], [ %29, %26 ], [ %14, %11 ], [ 2, %4 ], [ 0, %22 ], [ 0, %21 ], [ 0, %80 ], [ 0, %41 ]
  call void @llvm.lifetime.end.p0(i64 4, ptr nonnull %5) #4
  ret i32 %.062
}